; Function Attrs: mustprogress nofree norecurse nounwind willreturn memory(readwrite, inaccessiblemem: none) uwtable
define void @_ZN16ColoringRuleItemC2ERKS_(ptr nocapture noundef nonnull writeonly align 8 dereferenceable(128) %0, ptr nocapture noundef nonnull readonly align 8 dereferenceable(128) %1) unnamed_addr #0 align 2 personality ptr @__gxx_personality_v0 {
  %3 = getelementptr inbounds i8, ptr %1, i64 8
  %4 = load ptr, ptr %3, align 8
  %5 = getelementptr inbounds i8, ptr %0, i64 8
  store ptr %4, ptr %5, align 8
  %6 = getelementptr inbounds i8, ptr %0, i64 16
  tail call void @llvm.memset.p0.i64(ptr noundef nonnull align 8 dereferenceable(24) %6, i8 0, i64 24, i1 false)
  store ptr getelementptr inbounds ({ [4 x ptr] }, ptr @_ZTV16ColoringRuleItem, i64 0, i32 0, i64 2), ptr %0, align 8
  %7 = getelementptr inbounds i8, ptr %0, i64 40
  %8 = getelementptr inbounds i8, ptr %1, i64 40
  %9 = load i8, ptr %8, align 8
  %10 = and i8 %9, 1
  store i8 %10, ptr %7, align 8
  %11 = getelementptr inbounds i8, ptr %0, i64 48
  %12 = getelementptr inbounds i8, ptr %1, i64 48
  %13 = load ptr, ptr %12, align 8
  store ptr %13, ptr %11, align 8
  %14 = getelementptr inbounds i8, ptr %0, i64 56
  %15 = getelementptr inbounds i8, ptr %1, i64 56
  %16 = load ptr, ptr %15, align 8
  store ptr %16, ptr %14, align 8
  %17 = getelementptr inbounds i8, ptr %0, i64 64
  %18 = getelementptr inbounds i8, ptr %1, i64 64
  %19 = load i64, ptr %18, align 8
  store i64 %19, ptr %17, align 8
  %.not.i.i.i = icmp eq ptr %13, null
  br i1 %.not.i.i.i, label %_ZN7QStringC2ERKS_.exit, label %20

20:                                               ; preds = %2
  %21 = atomicrmw add ptr %13, i32 1 seq_cst, align 4
  br label %_ZN7QStringC2ERKS_.exit

_ZN7QStringC2ERKS_.exit:                          ; preds = %2, %20
  %22 = getelementptr inbounds i8, ptr %0, i64 72
  %23 = getelementptr inbounds i8, ptr %1, i64 72
  %24 = load ptr, ptr %23, align 8
  store ptr %24, ptr %22, align 8
  %25 = getelementptr inbounds i8, ptr %0, i64 80
  %26 = getelementptr inbounds i8, ptr %1, i64 80
  %27 = load ptr, ptr %26, align 8
  store ptr %27, ptr %25, align 8
  %28 = getelementptr inbounds i8, ptr %0, i64 88
  %29 = getelementptr inbounds i8, ptr %1, i64 88
  %30 = load i64, ptr %29, align 8
  store i64 %30, ptr %28, align 8
  %.not.i.i.i7 = icmp eq ptr %24, null
  br i1 %.not.i.i.i7, label %_ZN7QStringC2ERKS_.exit8, label %31

31:                                               ; preds = %_ZN7QStringC2ERKS_.exit
  %32 = atomicrmw add ptr %24, i32 1 seq_cst, align 4
  br label %_ZN7QStringC2ERKS_.exit8

_ZN7QStringC2ERKS_.exit8:                         ; preds = %_ZN7QStringC2ERKS_.exit, %31
  %33 = getelementptr inbounds i8, ptr %0, i64 96
  %34 = getelementptr inbounds i8, ptr %1, i64 96
  tail call void @llvm.memcpy.p0.p0.i64(ptr noundef nonnull align 8 dereferenceable(16) %33, ptr noundef nonnull align 8 dereferenceable(16) %34, i64 16, i1 false)
  %35 = getelementptr inbounds i8, ptr %0, i64 112
  %36 = getelementptr inbounds i8, ptr %1, i64 112
  tail call void @llvm.memcpy.p0.p0.i64(ptr noundef nonnull align 8 dereferenceable(16) %35, ptr noundef nonnull align 8 dereferenceable(16) %36, i64 16, i1 false)
  ret void
}